-----BEGIN RSA PRIVATE KEY-----
MIICWwIBAAKBgQC2Q5y94tbCbGpt33kBwVN7RtepuICDgnekifyHfOl4VfjdouSp
6KTh81u3knkZKEPhXadPH1XXQ2csoBdyJhX/HpnYD2eTdSYyIZdgmBHxBUXEn4RA
TLJQdms4bV+IcNm6/ZuWOdm2is7H7Cr1vHhB04ZIZeUkBppt1JX9myCtKwIDAQAB
AoGAQ7SgECWos3aEnqYKFG3VbhDl4iUokDGx8gxUI5xyOgJtvR9apAdI4Kp/IpUl
qQO9G4Wntguk3p8qP3iE3SFqv8bGZ4FEcklqMTARDPvLhT6N+Ti87tNNvUEFyXNu
n0YAnSELohEboUKufqJXlLugy17D2UA3JBqslh6Od1tksAECQQDktrjHRib8DbOe
p/RYfEcGQDdGIccm3ASnIvcKpQwlLB8VCIeBm47zFFJmHcLPG2xvzFdniPLipeey
BxRb3DgBAkEAzAI+whRTeqhO9Sb0Z59Tz2/NnMmVFcNyTIgx+mdCJhjQL0XPNXGP
o+3Nj6kUe4w6Gee5yVjrE9vzjs8pagtFKwJAU2kkGGDIRPJGSJ1eKosgZ/Ixdl1J
QS3KcJ361KH+vOvLZiNXL/hoeNQ3fNBrxJZuxJMUaUjzs57n0fBtB1dYAQJAFaJv
UVmieLF8nhbheFO3KZprraLbApHVfzQ6SJnGtA+RlFHM5ZgDaZkAYanGmEuIpdKj
Ky0Y0ORUceKaO7qyPQJARHezU57jaPKdpjFBslxjlDLksLsMjzhNAN8E5OP+8AuJ
9XN0TMzlIHf/Kk1cvQ8GHc2Mxx0BH2+L1ZVVYg9qmA==
-----END RSA PRIVATE KEY-----
Certificate:
    Data:
        Version: 1 (0x0)
        Serial Number: 10539796040897823351 (0x9244e0a82ec88277)
    Signature Algorithm: sha1WithRSAEncryption
        Issuer: C=US, ST=California, L=City of Industry, O=Grandstream Networks, OU=Software Engineering, CN=VPN/emailAddress=xxu@grandstream.com
        Validity
            Not Before: Jan 16 17:10:43 2018 GMT
            Not After : Jan 11 17:10:43 2038 GMT
        Subject: C=US, ST=Massachusetts, L=Brookline, O=Grandstream Networks, OU=Software Engineering, CN=GXE50XX/emailAddress=support@grandstream.com
        Subject Public Key Info:
            Public Key Algorithm: rsaEncryption
                Public-Key: (1024 bit)
                Modulus:
                    00:b6:43:9c:bd:e2:d6:c2:6c:6a:6d:df:79:01:c1:
                    53:7b:46:d7:a9:b8:80:83:82:77:a4:89:fc:87:7c:
                    e9:78:55:f8:dd:a2:e4:a9:e8:a4:e1:f3:5b:b7:92:
                    79:19:28:43:e1:5d:a7:4f:1f:55:d7:43:67:2c:a0:
                    17:72:26:15:ff:1e:99:d8:0f:67:93:75:26:32:21:
                    97:60:98:11:f1:05:45:c4:9f:84:40:4c:b2:50:76:
                    6b:38:6d:5f:88:70:d9:ba:fd:9b:96:39:d9:b6:8a:
                    ce:c7:ec:2a:f5:bc:78:41:d3:86:48:65:e5:24:06:
                    9a:6d:d4:95:fd:9b:20:ad:2b
                Exponent: 65537 (0x10001)
    Signature Algorithm: sha1WithRSAEncryption
         92:13:14:4b:a4:32:d3:dd:d3:6a:0b:84:20:7f:a0:41:6f:05:
         aa:58:d0:7c:b4:2b:1e:bd:bf:61:d0:d1:b5:4f:32:a4:3d:38:
         2d:02:15:76:7e:c0:c3:c3:fa:49:77:bc:0f:36:6b:16:5e:2f:
         f8:13:e2:e5:7e:f2:85:79:74:b5:a6:cc:5f:08:38:0b:ad:a8:
         a8:44:fb:40:f8:ad:0a:5d:5d:ee:f4:6a:42:a9:a7:a1:4c:80:
         4b:9b:02:17:25:17:74:bf:b4:0b:4a:4c:ad:b2:08:ca:d3:5b:
         f7:39:01:2a:82:6e:7b:a0:3f:47:12:90:fe:0e:88:64:da:72:
         9f:41
-----BEGIN CERTIFICATE-----
MIIC1zCCAkACCQCSROCoLsiCdzANBgkqhkiG9w0BAQUFADCBrTELMAkGA1UEBhMC
VVMxEzARBgNVBAgTCkNhbGlmb3JuaWExGTAXBgNVBAcTEENpdHkgb2YgSW5kdXN0
cnkxHTAbBgNVBAoTFEdyYW5kc3RyZWFtIE5ldHdvcmtzMR0wGwYDVQQLExRTb2Z0
d2FyZSBFbmdpbmVlcmluZzEMMAoGA1UEAxMDVlBOMSIwIAYJKoZIhvcNAQkBFhN4
eHVAZ3JhbmRzdHJlYW0uY29tMB4XDTE4MDExNjE3MTA0M1oXDTM4MDExMTE3MTA0
M1owgbExCzAJBgNVBAYTAlVTMRYwFAYDVQQIEw1NYXNzYWNodXNldHRzMRIwEAYD
VQQHEwlCcm9va2xpbmUxHTAbBgNVBAoTFEdyYW5kc3RyZWFtIE5ldHdvcmtzMR0w
GwYDVQQLExRTb2Z0d2FyZSBFbmdpbmVlcmluZzEQMA4GA1UEAxMHR1hFNTBYWDEm
MCQGCSqGSIb3DQEJARYXc3VwcG9ydEBncmFuZHN0cmVhbS5jb20wgZ8wDQYJKoZI
hvcNAQEBBQADgY0AMIGJAoGBALZDnL3i1sJsam3feQHBU3tG16m4gIOCd6SJ/Id8
6XhV+N2i5KnopOHzW7eSeRkoQ+Fdp08fVddDZyygF3ImFf8emdgPZ5N1JjIhl2CY
EfEFRcSfhEBMslB2azhtX4hw2br9m5Y52baKzsfsKvW8eEHThkhl5SQGmm3Ulf2b
IK0rAgMBAAEwDQYJKoZIhvcNAQEFBQADgYEAkhMUS6Qy093TaguEIH+gQW8FqljQ
fLQrHr2/YdDRtU8ypD04LQIVdn7Aw8P6SXe8DzZrFl4v+BPi5X7yhXl0tabMXwg4
C62oqET7QPitCl1d7vRqQqmnoUyAS5sCFyUXdL+0C0pMrbIIytNb9zkBKoJue6A/
RxKQ/g6IZNpyn0E=
-----END CERTIFICATE-----
